; Function Attrs: nofree norecurse nosync nounwind memory(read, inaccessiblemem: none) uwtable
define range(i32 0, 2) i32 @isMatrixNUnitary(ptr noundef readonly byval(%struct.ComplexMatrixN) align 8 captures(none) %0) local_unnamed_addr #8 {
.split:
  %1 = load i32, ptr %0, align 8, !tbaa !11
  %.not5061 = icmp eq i32 %1, 31
  br i1 %.not5061, label %.loopexit, label %.preheader51.lr.ph

.preheader51.lr.ph:                               ; preds = %.split
  %2 = shl nuw nsw i32 1, %1
  %3 = getelementptr inbounds nuw i8, ptr %0, i64 8
  %4 = load ptr, ptr %3, align 8
  %5 = getelementptr inbounds nuw i8, ptr %0, i64 16
  %6 = load ptr, ptr %5, align 8
  %wide.trip.count78 = zext nneg i32 %2 to i64
  br label %.preheader51.us

.preheader51.us:                                  ; preds = %..critedge_crit_edge.split.us.us, %.preheader51.lr.ph
  %indvars.iv75 = phi i64 [ %indvars.iv.next76, %..critedge_crit_edge.split.us.us ], [ 0, %.preheader51.lr.ph ]
  %7 = getelementptr inbounds nuw ptr, ptr %4, i64 %indvars.iv75
  %8 = getelementptr inbounds nuw ptr, ptr %6, i64 %indvars.iv75
  %9 = load ptr, ptr %7, align 8, !tbaa !16
  %10 = load ptr, ptr %8, align 8, !tbaa !16
  br label %.preheader.us.us

.preheader.us.us:                                 ; preds = %31, %.preheader51.us
  %indvars.iv70 = phi i64 [ %indvars.iv.next71, %31 ], [ 0, %.preheader51.us ]
  %11 = getelementptr inbounds nuw ptr, ptr %4, i64 %indvars.iv70
  %12 = load ptr, ptr %11, align 8, !tbaa !16
  %13 = getelementptr inbounds nuw ptr, ptr %6, i64 %indvars.iv70
  %14 = load ptr, ptr %13, align 8, !tbaa !16
  br label %15

15:                                               ; preds = %15, %.preheader.us.us
  %indvars.iv = phi i64 [ %indvars.iv.next, %15 ], [ 0, %.preheader.us.us ]
  %.04157.us.us = phi double [ %26, %15 ], [ 0.000000e+00, %.preheader.us.us ]
  %.04855.us.us = phi double [ %30, %15 ], [ 0.000000e+00, %.preheader.us.us ]
  %16 = getelementptr inbounds nuw double, ptr %9, i64 %indvars.iv
  %17 = load double, ptr %16, align 8, !tbaa !9
  %18 = getelementptr inbounds nuw double, ptr %12, i64 %indvars.iv
  %19 = load double, ptr %18, align 8, !tbaa !9
  %20 = getelementptr inbounds nuw double, ptr %10, i64 %indvars.iv
  %21 = load double, ptr %20, align 8, !tbaa !9
  %22 = getelementptr inbounds nuw double, ptr %14, i64 %indvars.iv
  %23 = load double, ptr %22, align 8, !tbaa !9
  %24 = fmul double %21, %23
  %25 = tail call double @llvm.fmuladd.f64(double %17, double %19, double %24)
  %26 = fadd double %.04157.us.us, %25
  %27 = fneg double %23
  %28 = fmul double %17, %27
  %29 = tail call double @llvm.fmuladd.f64(double %21, double %19, double %28)
  %30 = fadd double %.04855.us.us, %29
  %indvars.iv.next = add nuw nsw i64 %indvars.iv, 1
  %exitcond.not = icmp eq i64 %indvars.iv.next, %wide.trip.count78
  br i1 %exitcond.not, label %._crit_edge.us.us, label %15

31:                                               ; preds = %._crit_edge.us.us
  %indvars.iv.next71 = add nuw nsw i64 %indvars.iv70, 1
  %exitcond74.not = icmp eq i64 %indvars.iv.next71, %wide.trip.count78
  br i1 %exitcond74.not, label %..critedge_crit_edge.split.us.us, label %.preheader.us.us

._crit_edge.us.us:                                ; preds = %15
  %32 = icmp eq i64 %indvars.iv75, %indvars.iv70
  %33 = uitofp i1 %32 to double
  %34 = fsub double %26, %33
  %35 = fmul double %34, %34
  %36 = tail call double @llvm.fmuladd.f64(double %30, double %30, double %35)
  %37 = fcmp ule double %36, 1.000000e-26
  br i1 %37, label %31, label %.loopexit

..critedge_crit_edge.split.us.us:                 ; preds = %31
  %indvars.iv.next76 = add nuw nsw i64 %indvars.iv75, 1
  %exitcond79.not = icmp eq i64 %indvars.iv.next76, %wide.trip.count78
  br i1 %exitcond79.not, label %.loopexit, label %.preheader51.us

.loopexit:                                        ; preds = %..critedge_crit_edge.split.us.us, %._crit_edge.us.us, %.split
  %.not5054 = phi i32 [ 1, %.split ], [ 0, %._crit_edge.us.us ], [ 1, %..critedge_crit_edge.split.us.us ]
  ret i32 %.not5054
}